; Function Attrs: nounwind ssp uwtable
define hidden void @_sodium_ge25519_scalarmult_base(ptr noundef %0, ptr noundef readonly captures(none) %1) local_unnamed_addr #4 {
  %3 = alloca %struct.ge25519_p2, align 8
  %4 = alloca [64 x i8], align 16
  %5 = alloca %struct.ge25519_p1p1, align 8
  %6 = alloca %struct.ge25519_p2, align 8
  %7 = alloca %struct.ge25519_precomp, align 8
  call void @llvm.lifetime.start.p0(i64 64, ptr nonnull %4) #12
  call void @llvm.lifetime.start.p0(i64 160, ptr nonnull %5) #12
  call void @llvm.lifetime.start.p0(i64 120, ptr nonnull %6) #12
  call void @llvm.lifetime.start.p0(i64 120, ptr nonnull %7) #12
  br label %8

8:                                                ; preds = %2, %8
  %indvars.iv = phi i64 [ 0, %2 ], [ %indvars.iv.next, %8 ]
  %9 = getelementptr i8, ptr %1, i64 %indvars.iv
  %10 = load i8, ptr %9, align 1
  %11 = and i8 %10, 15
  %12 = shl nuw nsw i64 %indvars.iv, 1
  %13 = getelementptr [64 x i8], ptr %4, i64 0, i64 %12
  store i8 %11, ptr %13, align 2
  %14 = lshr i8 %10, 4
  %15 = or disjoint i64 %12, 1
  %16 = getelementptr [64 x i8], ptr %4, i64 0, i64 %15
  store i8 %14, ptr %16, align 1
  %indvars.iv.next = add nuw nsw i64 %indvars.iv, 1
  %exitcond.not = icmp eq i64 %indvars.iv.next, 32
  br i1 %exitcond.not, label %.preheader, label %8, !llvm.loop !32

.preheader:                                       ; preds = %8, %.preheader
  %indvars.iv38 = phi i64 [ %indvars.iv.next39, %.preheader ], [ 0, %8 ]
  %.03133 = phi i8 [ %21, %.preheader ], [ 0, %8 ]
  %17 = getelementptr [64 x i8], ptr %4, i64 0, i64 %indvars.iv38
  %18 = load i8, ptr %17, align 1
  %19 = add i8 %18, %.03133
  %20 = add i8 %19, 8
  %21 = ashr i8 %20, 4
  %22 = and i8 %20, -16
  %23 = sub i8 %19, %22
  store i8 %23, ptr %17, align 1
  %indvars.iv.next39 = add nuw nsw i64 %indvars.iv38, 1
  %exitcond40.not = icmp eq i64 %indvars.iv.next39, 63
  br i1 %exitcond40.not, label %24, label %.preheader, !llvm.loop !33

24:                                               ; preds = %.preheader
  %25 = getelementptr inbounds nuw i8, ptr %4, i64 63
  %26 = load i8, ptr %25, align 1
  %27 = add i8 %26, %21
  store i8 %27, ptr %25, align 1
  tail call void @llvm.memset.p0.i64(ptr noundef nonnull align 1 dereferenceable(40) %0, i8 noundef 0, i64 noundef 40, i1 noundef false) #12
  %28 = getelementptr inbounds nuw i8, ptr %0, i64 40
  store i64 1, ptr %28, align 8
  %29 = getelementptr i8, ptr %0, i64 48
  tail call void @llvm.memset.p0.i64(ptr noundef nonnull align 1 dereferenceable(32) %29, i8 noundef 0, i64 noundef 32, i1 noundef false) #12
  %30 = getelementptr inbounds nuw i8, ptr %0, i64 80
  store i64 1, ptr %30, align 8
  %31 = getelementptr i8, ptr %0, i64 88
  tail call void @llvm.memset.p0.i64(ptr noundef nonnull align 1 dereferenceable(32) %31, i8 noundef 0, i64 noundef 32, i1 noundef false) #12
  %32 = getelementptr inbounds nuw i8, ptr %0, i64 120
  tail call void @llvm.memset.p0.i64(ptr noundef nonnull align 1 dereferenceable(40) %32, i8 noundef 0, i64 noundef 40, i1 noundef false) #12
  %33 = getelementptr inbounds nuw i8, ptr %5, i64 120
  %34 = getelementptr inbounds nuw i8, ptr %5, i64 40
  %35 = getelementptr inbounds nuw i8, ptr %5, i64 80
  br label %36

36:                                               ; preds = %24, %36
  %indvars.iv41 = phi i64 [ 1, %24 ], [ %indvars.iv.next42, %36 ]
  %37 = lshr i64 %indvars.iv41, 1
  %38 = getelementptr [64 x i8], ptr %4, i64 0, i64 %indvars.iv41
  %39 = load i8, ptr %38, align 1
  %40 = trunc nuw nsw i64 %37 to i32
  call fastcc void @ge25519_cmov8_base(ptr noundef %7, i32 noundef %40, i8 noundef signext %39)
  call fastcc void @ge25519_add_precomp(ptr noundef %5, ptr noundef nonnull %0, ptr noundef nonnull %7)
  call fastcc void @fe25519_mul(ptr noundef nonnull %0, ptr noundef nonnull readonly %5, ptr noundef nonnull readonly %33)
  call fastcc void @fe25519_mul(ptr noundef nonnull %28, ptr noundef nonnull readonly %34, ptr noundef nonnull readonly %35)
  call fastcc void @fe25519_mul(ptr noundef nonnull %30, ptr noundef nonnull readonly %35, ptr noundef nonnull readonly %33)
  call fastcc void @fe25519_mul(ptr noundef nonnull %32, ptr noundef nonnull readonly %5, ptr noundef nonnull readonly %34)
  %indvars.iv.next42 = add nuw nsw i64 %indvars.iv41, 2
  %41 = icmp samesign ult i64 %indvars.iv41, 62
  br i1 %41, label %36, label %42, !llvm.loop !34

42:                                               ; preds = %36
  call void @llvm.lifetime.start.p0(i64 120, ptr nonnull %3) #12
  call void @llvm.memcpy.p0.p0.i64(ptr noundef nonnull align 8 dereferenceable(40) %3, ptr noundef nonnull readonly align 1 dereferenceable(40) %0, i64 noundef 40, i1 noundef false) #12
  %43 = getelementptr inbounds nuw i8, ptr %3, i64 40
  call void @llvm.memcpy.p0.p0.i64(ptr noundef nonnull align 8 dereferenceable(40) %43, ptr noundef nonnull readonly align 1 dereferenceable(40) %28, i64 noundef 40, i1 noundef false) #12
  %44 = getelementptr inbounds nuw i8, ptr %3, i64 80
  call void @llvm.memcpy.p0.p0.i64(ptr noundef nonnull align 8 dereferenceable(40) %44, ptr noundef nonnull readonly align 1 dereferenceable(40) %30, i64 noundef 40, i1 noundef false) #12
  call fastcc void @ge25519_p2_dbl(ptr noundef nonnull %5, ptr noundef nonnull %3)
  call void @llvm.lifetime.end.p0(i64 120, ptr nonnull %3) #12
  call fastcc void @fe25519_mul(ptr noundef nonnull %6, ptr noundef nonnull readonly %5, ptr noundef nonnull readonly %33)
  %45 = getelementptr inbounds nuw i8, ptr %6, i64 40
  call fastcc void @fe25519_mul(ptr noundef nonnull %45, ptr noundef nonnull readonly %34, ptr noundef nonnull readonly %35)
  %46 = getelementptr inbounds nuw i8, ptr %6, i64 80
  call fastcc void @fe25519_mul(ptr noundef nonnull %46, ptr noundef nonnull readonly %35, ptr noundef nonnull readonly %33)
  call fastcc void @ge25519_p2_dbl(ptr noundef %5, ptr noundef nonnull %6)
  call fastcc void @fe25519_mul(ptr noundef nonnull %6, ptr noundef nonnull readonly %5, ptr noundef nonnull readonly %33)
  call fastcc void @fe25519_mul(ptr noundef nonnull %45, ptr noundef nonnull readonly %34, ptr noundef nonnull readonly %35)
  call fastcc void @fe25519_mul(ptr noundef nonnull %46, ptr noundef nonnull readonly %35, ptr noundef nonnull readonly %33)
  call fastcc void @ge25519_p2_dbl(ptr noundef %5, ptr noundef nonnull %6)
  call fastcc void @fe25519_mul(ptr noundef nonnull %6, ptr noundef nonnull readonly %5, ptr noundef nonnull readonly %33)
  call fastcc void @fe25519_mul(ptr noundef nonnull %45, ptr noundef nonnull readonly %34, ptr noundef nonnull readonly %35)
  call fastcc void @fe25519_mul(ptr noundef nonnull %46, ptr noundef nonnull readonly %35, ptr noundef nonnull readonly %33)
  call fastcc void @ge25519_p2_dbl(ptr noundef %5, ptr noundef nonnull %6)
  call fastcc void @fe25519_mul(ptr noundef nonnull %0, ptr noundef nonnull readonly %5, ptr noundef nonnull readonly %33)
  call fastcc void @fe25519_mul(ptr noundef nonnull %28, ptr noundef nonnull readonly %34, ptr noundef nonnull readonly %35)
  call fastcc void @fe25519_mul(ptr noundef nonnull %30, ptr noundef nonnull readonly %35, ptr noundef nonnull readonly %33)
  call fastcc void @fe25519_mul(ptr noundef nonnull %32, ptr noundef nonnull readonly %5, ptr noundef nonnull readonly %34)
  br label %47

47:                                               ; preds = %42, %47
  %indvars.iv44 = phi i64 [ 0, %42 ], [ %indvars.iv.next45, %47 ]
  %48 = lshr exact i64 %indvars.iv44, 1
  %49 = getelementptr [64 x i8], ptr %4, i64 0, i64 %indvars.iv44
  %50 = load i8, ptr %49, align 2
  %51 = trunc nuw nsw i64 %48 to i32
  call fastcc void @ge25519_cmov8_base(ptr noundef %7, i32 noundef %51, i8 noundef signext %50)
  call fastcc void @ge25519_add_precomp(ptr noundef %5, ptr noundef nonnull %0, ptr noundef nonnull %7)
  call fastcc void @fe25519_mul(ptr noundef nonnull %0, ptr noundef nonnull readonly %5, ptr noundef nonnull readonly %33)
  call fastcc void @fe25519_mul(ptr noundef nonnull %28, ptr noundef nonnull readonly %34, ptr noundef nonnull readonly %35)
  call fastcc void @fe25519_mul(ptr noundef nonnull %30, ptr noundef nonnull readonly %35, ptr noundef nonnull readonly %33)
  call fastcc void @fe25519_mul(ptr noundef nonnull %32, ptr noundef nonnull readonly %5, ptr noundef nonnull readonly %34)
  %indvars.iv.next45 = add nuw nsw i64 %indvars.iv44, 2
  %52 = icmp samesign ult i64 %indvars.iv44, 62
  br i1 %52, label %47, label %53, !llvm.loop !35

53:                                               ; preds = %47
  call void @llvm.lifetime.end.p0(i64 120, ptr nonnull %7) #12
  call void @llvm.lifetime.end.p0(i64 120, ptr nonnull %6) #12
  call void @llvm.lifetime.end.p0(i64 160, ptr nonnull %5) #12
  call void @llvm.lifetime.end.p0(i64 64, ptr nonnull %4) #12
  ret void
}